; Function Attrs: nounwind uwtable
define ptr @l_Lake_instMonadLiftTEIOOfMonadOfMonadExceptOfOfBaseIO__lake___rarg(ptr noundef %0, ptr noundef %1, ptr noundef %2, ptr readnone captures(none) %3, ptr noundef %4) #0 {
  %6 = getelementptr inbounds nuw i8, ptr %0, i64 16
  %7 = load ptr, ptr %6, align 8, !tbaa !4
  %8 = ptrtoint ptr %7 to i64
  %9 = and i64 %8, 1
  %.not = icmp eq i64 %9, 0
  br i1 %.not, label %10, label %lean_inc.exit

10:                                               ; preds = %5
  %.val.i = load i32, ptr %7, align 4, !tbaa !8
  %11 = icmp sgt i32 %.val.i, 0
  br i1 %11, label %12, label %14, !prof !11

12:                                               ; preds = %10
  %13 = add nuw i32 %.val.i, 1
  store i32 %13, ptr %7, align 4, !tbaa !8
  br label %lean_inc.exit

14:                                               ; preds = %10
  %.not.i = icmp eq i32 %.val.i, 0
  br i1 %.not.i, label %lean_inc.exit, label %15

15:                                               ; preds = %14
  tail call void @lean_inc_ref_cold(ptr noundef nonnull %7) #3
  br label %lean_inc.exit

lean_inc.exit:                                    ; preds = %15, %14, %12, %5
  tail call void @lean_inc_heartbeat() #3
  %16 = tail call noalias ptr @mi_malloc_small(i64 noundef 32) #3
  %17 = icmp eq ptr %16, null
  br i1 %17, label %18, label %lean_alloc_closure.exit

18:                                               ; preds = %lean_inc.exit
  tail call void @lean_internal_panic_out_of_memory() #4
  unreachable

lean_alloc_closure.exit:                          ; preds = %lean_inc.exit
  %19 = getelementptr inbounds nuw i8, ptr %16, i64 4
  store i32 1, ptr %16, align 4, !tbaa !8
  store i32 -184549344, ptr %19, align 4
  %20 = getelementptr inbounds nuw i8, ptr %16, i64 8
  store ptr @l_EIO_toBaseIO___rarg, ptr %20, align 8, !tbaa !4
  %21 = getelementptr inbounds nuw i8, ptr %16, i64 16
  store i16 2, ptr %21, align 8, !tbaa !12
  %22 = getelementptr inbounds nuw i8, ptr %16, i64 18
  store i16 1, ptr %22, align 2, !tbaa !12
  %23 = getelementptr inbounds nuw i8, ptr %16, i64 24
  store ptr %4, ptr %23, align 8, !tbaa !4
  %24 = tail call ptr @lean_apply_2(ptr noundef %2, ptr noundef nonnull inttoptr (i64 1 to ptr), ptr noundef nonnull %16) #3
  tail call void @lean_inc_heartbeat() #3
  %25 = tail call noalias ptr @mi_malloc_small(i64 noundef 48) #3
  %26 = icmp eq ptr %25, null
  br i1 %26, label %27, label %lean_alloc_closure.exit15

27:                                               ; preds = %lean_alloc_closure.exit
  tail call void @lean_internal_panic_out_of_memory() #4
  unreachable

lean_alloc_closure.exit15:                        ; preds = %lean_alloc_closure.exit
  %28 = getelementptr inbounds nuw i8, ptr %25, i64 4
  store i32 1, ptr %25, align 4, !tbaa !8
  store i32 -184549328, ptr %28, align 4
  %29 = getelementptr inbounds nuw i8, ptr %25, i64 8
  store ptr @l_liftM___at_Lake_instMonadLiftTEIOOfMonadOfMonadExceptOfOfBaseIO__lake___spec__1___rarg, ptr %29, align 8, !tbaa !4
  %30 = getelementptr inbounds nuw i8, ptr %25, i64 16
  store i16 4, ptr %30, align 8, !tbaa !12
  %31 = getelementptr inbounds nuw i8, ptr %25, i64 18
  store i16 3, ptr %31, align 2, !tbaa !12
  %32 = getelementptr inbounds nuw i8, ptr %25, i64 24
  store ptr %0, ptr %32, align 8, !tbaa !4
  %33 = getelementptr inbounds nuw i8, ptr %25, i64 32
  store ptr %1, ptr %33, align 8, !tbaa !4
  %34 = getelementptr inbounds nuw i8, ptr %25, i64 40
  store ptr inttoptr (i64 1 to ptr), ptr %34, align 8, !tbaa !4
  %35 = tail call ptr @lean_apply_4(ptr noundef %7, ptr noundef nonnull inttoptr (i64 1 to ptr), ptr noundef nonnull inttoptr (i64 1 to ptr), ptr noundef %24, ptr noundef nonnull %25) #3
  ret ptr %35
}